; ModuleID = '7/57.c'
source_filename = "7/57.c"
target datalayout = "e-m:e-p270:32:32-p271:32:32-p272:64:64-i64:64-f80:128-n8:16:32:64-S128"
target triple = "x86_64-pc-linux-gnu"

@.str = private unnamed_addr constant [3 x i8] c"%s\00", align 1

; Function Attrs: noinline nounwind uwtable
define dso_local i32 @main() #0 {
  %1 = alloca i32, align 4
  %2 = alloca [256 x i8], align 16
  %3 = alloca [256 x i8], align 16
  %4 = alloca [256 x i8], align 16
  %5 = alloca i32, align 4
  store i32 0, i32* %1, align 4
  %6 = getelementptr inbounds [256 x i8], [256 x i8]* %2, i64 0, i64 0
  %7 = call i32 (i8*, ...) bitcast (i32 (...)* @gets to i32 (i8*, ...)*)(i8* %6)
  %8 = getelementptr inbounds [256 x i8], [256 x i8]* %3, i64 0, i64 0
  %9 = call i32 (i8*, ...) bitcast (i32 (...)* @gets to i32 (i8*, ...)*)(i8* %8)
  %10 = getelementptr inbounds [256 x i8], [256 x i8]* %4, i64 0, i64 0
  %11 = call i32 (i8*, ...) bitcast (i32 (...)* @gets to i32 (i8*, ...)*)(i8* %10)
  %12 = getelementptr inbounds [256 x i8], [256 x i8]* %2, i64 0, i64 0
  %13 = getelementptr inbounds [256 x i8], [256 x i8]* %3, i64 0, i64 0
  %14 = call i8* @strstr(i8* %12, i8* %13) #4
  %15 = getelementptr inbounds [256 x i8], [256 x i8]* %2, i64 0, i64 0
  %16 = ptrtoint i8* %14 to i64
  %17 = ptrtoint i8* %15 to i64
  %18 = sub i64 %16, %17
  %19 = trunc i64 %18 to i32
  store i32 %19, i32* %5, align 4
  %20 = getelementptr inbounds [256 x i8], [256 x i8]* %2, i64 0, i64 0
  %21 = getelementptr inbounds [256 x i8], [256 x i8]* %3, i64 0, i64 0
  %22 = load i8, i8* %21, align 16
  %23 = sext i8 %22 to i32
  %24 = call i8* @strchr(i8* %20, i32 %23) #4
  %25 = icmp ne i8* %24, null
  br i1 %25, label %26, label %34

26:                                               ; preds = %0
  %27 = getelementptr inbounds [256 x i8], [256 x i8]* %2, i64 0, i64 0
  %28 = load i32, i32* %5, align 4
  %29 = sext i32 %28 to i64
  %30 = getelementptr inbounds i8, i8* %27, i64 %29
  %31 = getelementptr inbounds [256 x i8], [256 x i8]* %4, i64 0, i64 0
  %32 = getelementptr inbounds [256 x i8], [256 x i8]* %4, i64 0, i64 0
  %33 = call i64 @strlen(i8* %32) #4
  call void @llvm.memmove.p0i8.p0i8.i64(i8* align 1 %30, i8* align 16 %31, i64 %33, i1 false)
  br label %34

34:                                               ; preds = %26, %0
  %35 = getelementptr inbounds [256 x i8], [256 x i8]* %2, i64 0, i64 0
  %36 = call i32 (i8*, ...) @printf(i8* getelementptr inbounds ([3 x i8], [3 x i8]* @.str, i64 0, i64 0), i8* %35)
  ret i32 0
}

declare dso_local i32 @gets(...) #1

; Function Attrs: nounwind readonly
declare dso_local i8* @strstr(i8*, i8*) #2

; Function Attrs: nounwind readonly
declare dso_local i8* @strchr(i8*, i32) #2

; Function Attrs: nounwind readonly
declare dso_local i64 @strlen(i8*) #2

; Function Attrs: argmemonly nounwind willreturn
declare void @llvm.memmove.p0i8.p0i8.i64(i8* nocapture, i8* nocapture readonly, i64, i1 immarg) #3

declare dso_local i32 @printf(i8*, ...) #1


!llvm.module.flags = !{!0}
!llvm.ident = !{!1}

!0 = !{i32 1, !"wchar_size", i32 4}
!1 = !{!"clang version 10.0.0-4ubuntu1 "}
